target datalayout = "e-m:e-p270:32:32-p271:32:32-p272:64:64-i64:64-i128:128-f80:128-n8:16:32:64-S128"
target triple = "x86_64-pc-linux-gnu"

%struct.URLGlob = type { [100 x %struct.URLPattern], i64, i64, ptr, i8, ptr, i64 }
%struct.URLPattern = type { i32, i32, %union.anon }
%union.anon = type { %struct.anon.1 }
%struct.anon.1 = type { i64, i64, i32, i64, i64 }
%struct.anon = type { ptr, i64, i32 }
%struct.anon.0 = type { i8, i8, i8, i32 }

@.str.3 = private unnamed_addr constant [43 x i8] c"internal error: invalid pattern type (%d)\0A\00", align 1
@.str.4 = private unnamed_addr constant [3 x i8] c"%s\00", align 1
@.str.5 = private unnamed_addr constant [6 x i8] c"%0*ld\00", align 1

; Function Attrs: nounwind uwtable
define dso_local i32 @glob_next_url(ptr noundef %0, ptr noundef %1) #0 {
  %3 = alloca i32, align 4
  %4 = alloca ptr, align 8
  %5 = alloca ptr, align 8
  %6 = alloca ptr, align 8
  %7 = alloca i64, align 8
  %8 = alloca i64, align 8
  %9 = alloca i64, align 8
  %10 = alloca ptr, align 8
  %11 = alloca i8, align 1
  %12 = alloca i32, align 4
  store ptr %0, ptr %4, align 8, !tbaa !35
  store ptr %1, ptr %5, align 8, !tbaa !17
  call void @llvm.lifetime.start.p0(i64 8, ptr %6) #10
  call void @llvm.lifetime.start.p0(i64 8, ptr %7) #10
  call void @llvm.lifetime.start.p0(i64 8, ptr %8) #10
  call void @llvm.lifetime.start.p0(i64 8, ptr %9) #10
  %13 = load ptr, ptr %5, align 8, !tbaa !17
  %14 = getelementptr inbounds nuw %struct.URLGlob, ptr %13, i32 0, i32 2
  %15 = load i64, ptr %14, align 8, !tbaa !20
  %16 = add i64 %15, 1
  store i64 %16, ptr %9, align 8, !tbaa !15
  call void @llvm.lifetime.start.p0(i64 8, ptr %10) #10
  %17 = load ptr, ptr %5, align 8, !tbaa !17
  %18 = getelementptr inbounds nuw %struct.URLGlob, ptr %17, i32 0, i32 3
  %19 = load ptr, ptr %18, align 8, !tbaa !22
  store ptr %19, ptr %10, align 8, !tbaa !9
  %20 = load ptr, ptr %4, align 8, !tbaa !35
  store ptr null, ptr %20, align 8, !tbaa !9
  %21 = load ptr, ptr %5, align 8, !tbaa !17
  %22 = getelementptr inbounds nuw %struct.URLGlob, ptr %21, i32 0, i32 4
  %23 = load i8, ptr %22, align 8, !tbaa !37
  %24 = icmp ne i8 %23, 0
  br i1 %24, label %28, label %25

25:                                               ; preds = %2
  %26 = load ptr, ptr %5, align 8, !tbaa !17
  %27 = getelementptr inbounds nuw %struct.URLGlob, ptr %26, i32 0, i32 4
  store i8 1, ptr %27, align 8, !tbaa !37
  br label %156

28:                                               ; preds = %2
  call void @llvm.lifetime.start.p0(i64 1, ptr %11) #10
  store i8 1, ptr %11, align 1, !tbaa !38
  store i64 0, ptr %7, align 8, !tbaa !15
  br label %29

29:                                               ; preds = %145, %28
  %30 = load i8, ptr %11, align 1, !tbaa !38, !range !40, !noundef !41
  %31 = trunc i8 %30 to i1
  br i1 %31, label %32, label %38

32:                                               ; preds = %29
  %33 = load i64, ptr %7, align 8, !tbaa !15
  %34 = load ptr, ptr %5, align 8, !tbaa !17
  %35 = getelementptr inbounds nuw %struct.URLGlob, ptr %34, i32 0, i32 1
  %36 = load i64, ptr %35, align 8, !tbaa !29
  %37 = icmp ult i64 %33, %36
  br label %38

38:                                               ; preds = %32, %29
  %39 = phi i1 [ false, %29 ], [ %37, %32 ]
  br i1 %39, label %40, label %148

40:                                               ; preds = %38
  store i8 0, ptr %11, align 1, !tbaa !38
  %41 = load ptr, ptr %5, align 8, !tbaa !17
  %42 = getelementptr inbounds nuw %struct.URLGlob, ptr %41, i32 0, i32 0
  %43 = load ptr, ptr %5, align 8, !tbaa !17
  %44 = getelementptr inbounds nuw %struct.URLGlob, ptr %43, i32 0, i32 1
  %45 = load i64, ptr %44, align 8, !tbaa !29
  %46 = sub i64 %45, 1
  %47 = load i64, ptr %7, align 8, !tbaa !15
  %48 = sub i64 %46, %47
  %49 = getelementptr inbounds nuw [100 x %struct.URLPattern], ptr %42, i64 0, i64 %48
  store ptr %49, ptr %6, align 8, !tbaa !42
  %50 = load ptr, ptr %6, align 8, !tbaa !42
  %51 = getelementptr inbounds nuw %struct.URLPattern, ptr %50, i32 0, i32 0
  %52 = load i32, ptr %51, align 8, !tbaa !31
  switch i32 %52, label %139 [
    i32 1, label %53
    i32 2, label %76
    i32 3, label %111
  ]

53:                                               ; preds = %40
  %54 = load ptr, ptr %6, align 8, !tbaa !42
  %55 = getelementptr inbounds nuw %struct.URLPattern, ptr %54, i32 0, i32 2
  %56 = getelementptr inbounds nuw %struct.anon, ptr %55, i32 0, i32 0
  %57 = load ptr, ptr %56, align 8, !tbaa !19
  %58 = icmp ne ptr %57, null
  br i1 %58, label %59, label %75

59:                                               ; preds = %53
  %60 = load ptr, ptr %6, align 8, !tbaa !42
  %61 = getelementptr inbounds nuw %struct.URLPattern, ptr %60, i32 0, i32 2
  %62 = getelementptr inbounds nuw %struct.anon, ptr %61, i32 0, i32 2
  %63 = load i32, ptr %62, align 8, !tbaa !19
  %64 = add nsw i32 %63, 1
  store i32 %64, ptr %62, align 8, !tbaa !19
  %65 = sext i32 %64 to i64
  %66 = load ptr, ptr %6, align 8, !tbaa !42
  %67 = getelementptr inbounds nuw %struct.URLPattern, ptr %66, i32 0, i32 2
  %68 = getelementptr inbounds nuw %struct.anon, ptr %67, i32 0, i32 1
  %69 = load i64, ptr %68, align 8, !tbaa !19
  %70 = icmp eq i64 %65, %69
  br i1 %70, label %71, label %75

71:                                               ; preds = %59
  %72 = load ptr, ptr %6, align 8, !tbaa !42
  %73 = getelementptr inbounds nuw %struct.URLPattern, ptr %72, i32 0, i32 2
  %74 = getelementptr inbounds nuw %struct.anon, ptr %73, i32 0, i32 2
  store i32 0, ptr %74, align 8, !tbaa !19
  store i8 1, ptr %11, align 1, !tbaa !38
  br label %75

75:                                               ; preds = %71, %59, %53
  br label %144

76:                                               ; preds = %40
  %77 = load ptr, ptr %6, align 8, !tbaa !42
  %78 = getelementptr inbounds nuw %struct.URLPattern, ptr %77, i32 0, i32 2
  %79 = getelementptr inbounds nuw %struct.anon.0, ptr %78, i32 0, i32 3
  %80 = load i32, ptr %79, align 4, !tbaa !19
  %81 = load ptr, ptr %6, align 8, !tbaa !42
  %82 = getelementptr inbounds nuw %struct.URLPattern, ptr %81, i32 0, i32 2
  %83 = getelementptr inbounds nuw %struct.anon.0, ptr %82, i32 0, i32 2
  %84 = load i8, ptr %83, align 2, !tbaa !19
  %85 = zext i8 %84 to i32
  %86 = add nsw i32 %80, %85
  %87 = trunc i32 %86 to i8
  %88 = load ptr, ptr %6, align 8, !tbaa !42
  %89 = getelementptr inbounds nuw %struct.URLPattern, ptr %88, i32 0, i32 2
  %90 = getelementptr inbounds nuw %struct.anon.0, ptr %89, i32 0, i32 2
  store i8 %87, ptr %90, align 2, !tbaa !19
  %91 = load ptr, ptr %6, align 8, !tbaa !42
  %92 = getelementptr inbounds nuw %struct.URLPattern, ptr %91, i32 0, i32 2
  %93 = getelementptr inbounds nuw %struct.anon.0, ptr %92, i32 0, i32 2
  %94 = load i8, ptr %93, align 2, !tbaa !19
  %95 = sext i8 %94 to i32
  %96 = load ptr, ptr %6, align 8, !tbaa !42
  %97 = getelementptr inbounds nuw %struct.URLPattern, ptr %96, i32 0, i32 2
  %98 = getelementptr inbounds nuw %struct.anon.0, ptr %97, i32 0, i32 1
  %99 = load i8, ptr %98, align 1, !tbaa !19
  %100 = sext i8 %99 to i32
  %101 = icmp sgt i32 %95, %100
  br i1 %101, label %102, label %110

102:                                              ; preds = %76
  %103 = load ptr, ptr %6, align 8, !tbaa !42
  %104 = getelementptr inbounds nuw %struct.URLPattern, ptr %103, i32 0, i32 2
  %105 = getelementptr inbounds nuw %struct.anon.0, ptr %104, i32 0, i32 0
  %106 = load i8, ptr %105, align 8, !tbaa !19
  %107 = load ptr, ptr %6, align 8, !tbaa !42
  %108 = getelementptr inbounds nuw %struct.URLPattern, ptr %107, i32 0, i32 2
  %109 = getelementptr inbounds nuw %struct.anon.0, ptr %108, i32 0, i32 2
  store i8 %106, ptr %109, align 2, !tbaa !19
  store i8 1, ptr %11, align 1, !tbaa !38
  br label %110

110:                                              ; preds = %102, %76
  br label %144

111:                                              ; preds = %40
  %112 = load ptr, ptr %6, align 8, !tbaa !42
  %113 = getelementptr inbounds nuw %struct.URLPattern, ptr %112, i32 0, i32 2
  %114 = getelementptr inbounds nuw %struct.anon.1, ptr %113, i32 0, i32 4
  %115 = load i64, ptr %114, align 8, !tbaa !19
  %116 = load ptr, ptr %6, align 8, !tbaa !42
  %117 = getelementptr inbounds nuw %struct.URLPattern, ptr %116, i32 0, i32 2
  %118 = getelementptr inbounds nuw %struct.anon.1, ptr %117, i32 0, i32 3
  %119 = load i64, ptr %118, align 8, !tbaa !19
  %120 = add nsw i64 %119, %115
  store i64 %120, ptr %118, align 8, !tbaa !19
  %121 = load ptr, ptr %6, align 8, !tbaa !42
  %122 = getelementptr inbounds nuw %struct.URLPattern, ptr %121, i32 0, i32 2
  %123 = getelementptr inbounds nuw %struct.anon.1, ptr %122, i32 0, i32 3
  %124 = load i64, ptr %123, align 8, !tbaa !19
  %125 = load ptr, ptr %6, align 8, !tbaa !42
  %126 = getelementptr inbounds nuw %struct.URLPattern, ptr %125, i32 0, i32 2
  %127 = getelementptr inbounds nuw %struct.anon.1, ptr %126, i32 0, i32 1
  %128 = load i64, ptr %127, align 8, !tbaa !19
  %129 = icmp sgt i64 %124, %128
  br i1 %129, label %130, label %138

130:                                              ; preds = %111
  %131 = load ptr, ptr %6, align 8, !tbaa !42
  %132 = getelementptr inbounds nuw %struct.URLPattern, ptr %131, i32 0, i32 2
  %133 = getelementptr inbounds nuw %struct.anon.1, ptr %132, i32 0, i32 0
  %134 = load i64, ptr %133, align 8, !tbaa !19
  %135 = load ptr, ptr %6, align 8, !tbaa !42
  %136 = getelementptr inbounds nuw %struct.URLPattern, ptr %135, i32 0, i32 2
  %137 = getelementptr inbounds nuw %struct.anon.1, ptr %136, i32 0, i32 3
  store i64 %134, ptr %137, align 8, !tbaa !19
  store i8 1, ptr %11, align 1, !tbaa !38
  br label %138

138:                                              ; preds = %130, %111
  br label %144

139:                                              ; preds = %40
  %140 = load ptr, ptr %6, align 8, !tbaa !42
  %141 = getelementptr inbounds nuw %struct.URLPattern, ptr %140, i32 0, i32 0
  %142 = load i32, ptr %141, align 8, !tbaa !31
  %143 = call i32 (ptr, ...) @curl_mprintf(ptr noundef @.str.3, i32 noundef %142)
  store i32 2, ptr %3, align 4
  store i32 1, ptr %12, align 4
  br label %153

144:                                              ; preds = %138, %110, %75
  br label %145

145:                                              ; preds = %144
  %146 = load i64, ptr %7, align 8, !tbaa !15
  %147 = add i64 %146, 1
  store i64 %147, ptr %7, align 8, !tbaa !15
  br label %29, !llvm.loop !44

148:                                              ; preds = %38
  %149 = load i8, ptr %11, align 1, !tbaa !38, !range !40, !noundef !41
  %150 = trunc i8 %149 to i1
  br i1 %150, label %151, label %152

151:                                              ; preds = %148
  store i32 0, ptr %3, align 4
  store i32 1, ptr %12, align 4
  br label %153

152:                                              ; preds = %148
  store i32 0, ptr %12, align 4
  br label %153

153:                                              ; preds = %152, %151, %139
  call void @llvm.lifetime.end.p0(i64 1, ptr %11) #10
  %154 = load i32, ptr %12, align 4
  switch i32 %154, label %255 [
    i32 0, label %155
  ]

155:                                              ; preds = %153
  br label %156

156:                                              ; preds = %155, %25
  store i64 0, ptr %7, align 8, !tbaa !15
  br label %157

157:                                              ; preds = %241, %156
  %158 = load i64, ptr %7, align 8, !tbaa !15
  %159 = load ptr, ptr %5, align 8, !tbaa !17
  %160 = getelementptr inbounds nuw %struct.URLGlob, ptr %159, i32 0, i32 1
  %161 = load i64, ptr %160, align 8, !tbaa !29
  %162 = icmp ult i64 %158, %161
  br i1 %162, label %163, label %244

163:                                              ; preds = %157
  %164 = load ptr, ptr %5, align 8, !tbaa !17
  %165 = getelementptr inbounds nuw %struct.URLGlob, ptr %164, i32 0, i32 0
  %166 = load i64, ptr %7, align 8, !tbaa !15
  %167 = getelementptr inbounds nuw [100 x %struct.URLPattern], ptr %165, i64 0, i64 %166
  store ptr %167, ptr %6, align 8, !tbaa !42
  %168 = load ptr, ptr %6, align 8, !tbaa !42
  %169 = getelementptr inbounds nuw %struct.URLPattern, ptr %168, i32 0, i32 0
  %170 = load i32, ptr %169, align 8, !tbaa !31
  switch i32 %170, label %235 [
    i32 1, label %171
    i32 2, label %201
    i32 3, label %215
  ]

171:                                              ; preds = %163
  %172 = load ptr, ptr %6, align 8, !tbaa !42
  %173 = getelementptr inbounds nuw %struct.URLPattern, ptr %172, i32 0, i32 2
  %174 = getelementptr inbounds nuw %struct.anon, ptr %173, i32 0, i32 0
  %175 = load ptr, ptr %174, align 8, !tbaa !19
  %176 = icmp ne ptr %175, null
  br i1 %176, label %177, label %200

177:                                              ; preds = %171
  %178 = load ptr, ptr %10, align 8, !tbaa !9
  %179 = load i64, ptr %9, align 8, !tbaa !15
  %180 = load ptr, ptr %6, align 8, !tbaa !42
  %181 = getelementptr inbounds nuw %struct.URLPattern, ptr %180, i32 0, i32 2
  %182 = getelementptr inbounds nuw %struct.anon, ptr %181, i32 0, i32 0
  %183 = load ptr, ptr %182, align 8, !tbaa !19
  %184 = load ptr, ptr %6, align 8, !tbaa !42
  %185 = getelementptr inbounds nuw %struct.URLPattern, ptr %184, i32 0, i32 2
  %186 = getelementptr inbounds nuw %struct.anon, ptr %185, i32 0, i32 2
  %187 = load i32, ptr %186, align 8, !tbaa !19
  %188 = sext i32 %187 to i64
  %189 = getelementptr inbounds ptr, ptr %183, i64 %188
  %190 = load ptr, ptr %189, align 8, !tbaa !9
  %191 = call i32 (ptr, i64, ptr, ...) @curl_msnprintf(ptr noundef %178, i64 noundef %179, ptr noundef @.str.4, ptr noundef %190)
  %192 = load ptr, ptr %10, align 8, !tbaa !9
  %193 = call i64 @strlen(ptr noundef %192) #11
  store i64 %193, ptr %8, align 8, !tbaa !15
  %194 = load i64, ptr %8, align 8, !tbaa !15
  %195 = load ptr, ptr %10, align 8, !tbaa !9
  %196 = getelementptr inbounds nuw i8, ptr %195, i64 %194
  store ptr %196, ptr %10, align 8, !tbaa !9
  %197 = load i64, ptr %8, align 8, !tbaa !15
  %198 = load i64, ptr %9, align 8, !tbaa !15
  %199 = sub i64 %198, %197
  store i64 %199, ptr %9, align 8, !tbaa !15
  br label %200

200:                                              ; preds = %177, %171
  br label %240

201:                                              ; preds = %163
  %202 = load i64, ptr %9, align 8, !tbaa !15
  %203 = icmp ne i64 %202, 0
  br i1 %203, label %204, label %214

204:                                              ; preds = %201
  %205 = load ptr, ptr %6, align 8, !tbaa !42
  %206 = getelementptr inbounds nuw %struct.URLPattern, ptr %205, i32 0, i32 2
  %207 = getelementptr inbounds nuw %struct.anon.0, ptr %206, i32 0, i32 2
  %208 = load i8, ptr %207, align 2, !tbaa !19
  %209 = load ptr, ptr %10, align 8, !tbaa !9
  %210 = getelementptr inbounds nuw i8, ptr %209, i32 1
  store ptr %210, ptr %10, align 8, !tbaa !9
  store i8 %208, ptr %209, align 1, !tbaa !19
  %211 = load ptr, ptr %10, align 8, !tbaa !9
  store i8 0, ptr %211, align 1, !tbaa !19
  %212 = load i64, ptr %9, align 8, !tbaa !15
  %213 = add i64 %212, -1
  store i64 %213, ptr %9, align 8, !tbaa !15
  br label %214

214:                                              ; preds = %204, %201
  br label %240

215:                                              ; preds = %163
  %216 = load ptr, ptr %10, align 8, !tbaa !9
  %217 = load i64, ptr %9, align 8, !tbaa !15
  %218 = load ptr, ptr %6, align 8, !tbaa !42
  %219 = getelementptr inbounds nuw %struct.URLPattern, ptr %218, i32 0, i32 2
  %220 = getelementptr inbounds nuw %struct.anon.1, ptr %219, i32 0, i32 2
  %221 = load i32, ptr %220, align 8, !tbaa !19
  %222 = load ptr, ptr %6, align 8, !tbaa !42
  %223 = getelementptr inbounds nuw %struct.URLPattern, ptr %222, i32 0, i32 2
  %224 = getelementptr inbounds nuw %struct.anon.1, ptr %223, i32 0, i32 3
  %225 = load i64, ptr %224, align 8, !tbaa !19
  %226 = call i32 (ptr, i64, ptr, ...) @curl_msnprintf(ptr noundef %216, i64 noundef %217, ptr noundef @.str.5, i32 noundef %221, i64 noundef %225)
  %227 = load ptr, ptr %10, align 8, !tbaa !9
  %228 = call i64 @strlen(ptr noundef %227) #11
  store i64 %228, ptr %8, align 8, !tbaa !15
  %229 = load i64, ptr %8, align 8, !tbaa !15
  %230 = load ptr, ptr %10, align 8, !tbaa !9
  %231 = getelementptr inbounds nuw i8, ptr %230, i64 %229
  store ptr %231, ptr %10, align 8, !tbaa !9
  %232 = load i64, ptr %8, align 8, !tbaa !15
  %233 = load i64, ptr %9, align 8, !tbaa !15
  %234 = sub i64 %233, %232
  store i64 %234, ptr %9, align 8, !tbaa !15
  br label %240

235:                                              ; preds = %163
  %236 = load ptr, ptr %6, align 8, !tbaa !42
  %237 = getelementptr inbounds nuw %struct.URLPattern, ptr %236, i32 0, i32 0
  %238 = load i32, ptr %237, align 8, !tbaa !31
  %239 = call i32 (ptr, ...) @curl_mprintf(ptr noundef @.str.3, i32 noundef %238)
  store i32 2, ptr %3, align 4
  store i32 1, ptr %12, align 4
  br label %255

240:                                              ; preds = %215, %214, %200
  br label %241

241:                                              ; preds = %240
  %242 = load i64, ptr %7, align 8, !tbaa !15
  %243 = add i64 %242, 1
  store i64 %243, ptr %7, align 8, !tbaa !15
  br label %157, !llvm.loop !45

244:                                              ; preds = %157
  %245 = load ptr, ptr %5, align 8, !tbaa !17
  %246 = getelementptr inbounds nuw %struct.URLGlob, ptr %245, i32 0, i32 3
  %247 = load ptr, ptr %246, align 8, !tbaa !22
  %248 = call noalias ptr @strdup(ptr noundef %247) #10
  %249 = load ptr, ptr %4, align 8, !tbaa !35
  store ptr %248, ptr %249, align 8, !tbaa !9
  %250 = load ptr, ptr %4, align 8, !tbaa !35
  %251 = load ptr, ptr %250, align 8, !tbaa !9
  %252 = icmp ne ptr %251, null
  br i1 %252, label %254, label %253

253:                                              ; preds = %244
  store i32 27, ptr %3, align 4
  store i32 1, ptr %12, align 4
  br label %255

254:                                              ; preds = %244
  store i32 0, ptr %3, align 4
  store i32 1, ptr %12, align 4
  br label %255

255:                                              ; preds = %254, %253, %235, %153
  call void @llvm.lifetime.end.p0(i64 8, ptr %10) #10
  call void @llvm.lifetime.end.p0(i64 8, ptr %9) #10
  call void @llvm.lifetime.end.p0(i64 8, ptr %8) #10
  call void @llvm.lifetime.end.p0(i64 8, ptr %7) #10
  call void @llvm.lifetime.end.p0(i64 8, ptr %6) #10
  %256 = load i32, ptr %3, align 4
  ret i32 %256
}