; Function Attrs: nounwind uwtable
define dso_local range(i32 0, 28) i32 @glob_next_url(ptr noundef writeonly captures(none) initializes((0, 8)) %0, ptr noundef captures(none) %1) local_unnamed_addr #0 {
  %3 = getelementptr inbounds nuw i8, ptr %1, i64 4808
  %4 = load i64, ptr %3, align 8, !tbaa !10
  %5 = add i64 %4, 1
  %6 = getelementptr inbounds nuw i8, ptr %1, i64 4816
  %7 = load ptr, ptr %6, align 8, !tbaa !14
  store ptr null, ptr %0, align 8, !tbaa !24
  %8 = getelementptr inbounds nuw i8, ptr %1, i64 4824
  %9 = load i8, ptr %8, align 8, !tbaa !33
  %.not = icmp eq i8 %9, 0
  br i1 %.not, label %12, label %.preheader

.preheader:                                       ; preds = %2
  %10 = getelementptr inbounds nuw i8, ptr %1, i64 4800
  %11 = load i64, ptr %10, align 8, !tbaa !17
  %exitcond.not105 = icmp eq i64 %11, 0
  br i1 %exitcond.not105, label %.loopexit, label %.lr.ph107

12:                                               ; preds = %2
  store i8 1, ptr %8, align 8, !tbaa !33
  %.phi.trans.insert = getelementptr inbounds nuw i8, ptr %1, i64 4800
  %.pre = load i64, ptr %.phi.trans.insert, align 8, !tbaa !17
  %13 = icmp eq i64 %.pre, 0
  br label %.thread86

.lr.ph107:                                        ; preds = %.preheader, %.backedge
  %.07289106 = phi i64 [ %.07289.be, %.backedge ], [ 0, %.preheader ]
  %14 = xor i64 %.07289106, -1
  %15 = add i64 %11, %14
  %16 = getelementptr inbounds nuw [100 x %struct.URLPattern], ptr %1, i64 0, i64 %15
  %17 = load i32, ptr %16, align 8, !tbaa !18
  switch i32 %17, label %.thread [
    i32 1, label %18
    i32 2, label %21
    i32 3, label %34
  ]

18:                                               ; preds = %.lr.ph107
  %19 = getelementptr inbounds nuw i8, ptr %16, i64 8
  %20 = load ptr, ptr %19, align 8, !tbaa !9
  %.not78 = icmp eq ptr %20, null
  br i1 %.not78, label %.thread86, label %47

21:                                               ; preds = %.lr.ph107
  %22 = getelementptr inbounds nuw i8, ptr %16, i64 12
  %23 = load i32, ptr %22, align 4, !tbaa !9
  %24 = getelementptr inbounds nuw i8, ptr %16, i64 10
  %25 = load i8, ptr %24, align 2, !tbaa !9
  %26 = trunc i32 %23 to i8
  %27 = add i8 %25, %26
  store i8 %27, ptr %24, align 2, !tbaa !9
  %28 = getelementptr inbounds nuw i8, ptr %16, i64 9
  %29 = load i8, ptr %28, align 1, !tbaa !9
  %30 = icmp sgt i8 %27, %29
  br i1 %30, label %31, label %.thread86

31:                                               ; preds = %21
  %32 = getelementptr inbounds nuw i8, ptr %16, i64 8
  %33 = load i8, ptr %32, align 8, !tbaa !9
  store i8 %33, ptr %24, align 2, !tbaa !9
  br label %.backedge

34:                                               ; preds = %.lr.ph107
  %35 = getelementptr inbounds nuw i8, ptr %16, i64 40
  %36 = load i64, ptr %35, align 8, !tbaa !9
  %37 = getelementptr inbounds nuw i8, ptr %16, i64 32
  %38 = load i64, ptr %37, align 8, !tbaa !9
  %39 = add nsw i64 %38, %36
  store i64 %39, ptr %37, align 8, !tbaa !9
  %40 = getelementptr inbounds nuw i8, ptr %16, i64 16
  %41 = load i64, ptr %40, align 8, !tbaa !9
  %42 = icmp sgt i64 %39, %41
  br i1 %42, label %43, label %.thread86

43:                                               ; preds = %34
  %44 = getelementptr inbounds nuw i8, ptr %16, i64 8
  %45 = load i64, ptr %44, align 8, !tbaa !9
  store i64 %45, ptr %37, align 8, !tbaa !9
  br label %.backedge

.thread:                                          ; preds = %.lr.ph107
  %46 = tail call i32 (ptr, ...) @curl_mprintf(ptr noundef nonnull @.str.3, i32 noundef %17) #13
  br label %.loopexit

47:                                               ; preds = %18
  %48 = getelementptr inbounds nuw i8, ptr %16, i64 24
  %49 = load i32, ptr %48, align 8, !tbaa !9
  %50 = add nsw i32 %49, 1
  %51 = sext i32 %50 to i64
  %52 = getelementptr inbounds nuw i8, ptr %16, i64 16
  %53 = load i64, ptr %52, align 8, !tbaa !9
  %54 = icmp eq i64 %53, %51
  %spec.store.select = select i1 %54, i32 0, i32 %50
  store i32 %spec.store.select, ptr %48, align 8
  br i1 %54, label %.backedge, label %.thread86

.backedge:                                        ; preds = %47, %31, %43
  %.07289.be = add i64 %.07289106, 1
  %exitcond.not = icmp eq i64 %.07289.be, %11
  br i1 %exitcond.not, label %.loopexit, label %.lr.ph107, !llvm.loop !34

.thread86:                                        ; preds = %18, %21, %34, %47, %12
  %.not93 = phi i1 [ %13, %12 ], [ false, %47 ], [ false, %34 ], [ false, %21 ], [ false, %18 ]
  %55 = getelementptr inbounds nuw i8, ptr %1, i64 4800
  br i1 %.not93, label %._crit_edge, label %.lr.ph

.lr.ph:                                           ; preds = %.thread86, %88
  %.06892 = phi ptr [ %.169, %88 ], [ %7, %.thread86 ]
  %.07091 = phi i64 [ %.171, %88 ], [ %5, %.thread86 ]
  %.17390 = phi i64 [ %89, %88 ], [ 0, %.thread86 ]
  %56 = getelementptr inbounds nuw [100 x %struct.URLPattern], ptr %1, i64 0, i64 %.17390
  %57 = load i32, ptr %56, align 8, !tbaa !18
  switch i32 %57, label %86 [
    i32 1, label %58
    i32 2, label %71
    i32 3, label %77
  ]

58:                                               ; preds = %.lr.ph
  %59 = getelementptr inbounds nuw i8, ptr %56, i64 8
  %60 = load ptr, ptr %59, align 8, !tbaa !9
  %.not81 = icmp eq ptr %60, null
  br i1 %.not81, label %88, label %61

61:                                               ; preds = %58
  %62 = getelementptr inbounds nuw i8, ptr %56, i64 24
  %63 = load i32, ptr %62, align 8, !tbaa !9
  %64 = sext i32 %63 to i64
  %65 = getelementptr inbounds ptr, ptr %60, i64 %64
  %66 = load ptr, ptr %65, align 8, !tbaa !24
  %67 = tail call i32 (ptr, i64, ptr, ...) @curl_msnprintf(ptr noundef %.06892, i64 noundef %.07091, ptr noundef nonnull @.str.4, ptr noundef %66) #13
  %68 = tail call i64 @strlen(ptr noundef nonnull dereferenceable(1) %.06892) #14
  %69 = getelementptr inbounds nuw i8, ptr %.06892, i64 %68
  %70 = sub i64 %.07091, %68
  br label %88

71:                                               ; preds = %.lr.ph
  %.not80 = icmp eq i64 %.07091, 0
  br i1 %.not80, label %88, label %72

72:                                               ; preds = %71
  %73 = getelementptr inbounds nuw i8, ptr %56, i64 10
  %74 = load i8, ptr %73, align 2, !tbaa !9
  %75 = getelementptr inbounds nuw i8, ptr %.06892, i64 1
  store i8 %74, ptr %.06892, align 1, !tbaa !9
  store i8 0, ptr %75, align 1, !tbaa !9
  %76 = add i64 %.07091, -1
  br label %88

77:                                               ; preds = %.lr.ph
  %78 = getelementptr inbounds nuw i8, ptr %56, i64 24
  %79 = load i32, ptr %78, align 8, !tbaa !9
  %80 = getelementptr inbounds nuw i8, ptr %56, i64 32
  %81 = load i64, ptr %80, align 8, !tbaa !9
  %82 = tail call i32 (ptr, i64, ptr, ...) @curl_msnprintf(ptr noundef %.06892, i64 noundef %.07091, ptr noundef nonnull @.str.5, i32 noundef %79, i64 noundef %81) #13
  %83 = tail call i64 @strlen(ptr noundef nonnull dereferenceable(1) %.06892) #14
  %84 = getelementptr inbounds nuw i8, ptr %.06892, i64 %83
  %85 = sub i64 %.07091, %83
  br label %88

86:                                               ; preds = %.lr.ph
  %87 = tail call i32 (ptr, ...) @curl_mprintf(ptr noundef nonnull @.str.3, i32 noundef %57) #13
  br label %.loopexit

88:                                               ; preds = %77, %61, %58, %72, %71
  %.171 = phi i64 [ %85, %77 ], [ %76, %72 ], [ 0, %71 ], [ %70, %61 ], [ %.07091, %58 ]
  %.169 = phi ptr [ %84, %77 ], [ %75, %72 ], [ %.06892, %71 ], [ %69, %61 ], [ %.06892, %58 ]
  %89 = add nuw i64 %.17390, 1
  %90 = load i64, ptr %55, align 8, !tbaa !17
  %91 = icmp ult i64 %89, %90
  br i1 %91, label %.lr.ph, label %._crit_edge, !llvm.loop !35

._crit_edge:                                      ; preds = %88, %.thread86
  %92 = load ptr, ptr %6, align 8, !tbaa !14
  %93 = tail call noalias ptr @strdup(ptr noundef %92) #13
  store ptr %93, ptr %0, align 8, !tbaa !24
  %.not79 = icmp eq ptr %93, null
  %.83 = select i1 %.not79, i32 27, i32 0
  br label %.loopexit

.loopexit:                                        ; preds = %.backedge, %.preheader, %.thread, %._crit_edge, %86
  %.175 = phi i32 [ 2, %86 ], [ %.83, %._crit_edge ], [ 2, %.thread ], [ 0, %.preheader ], [ 0, %.backedge ]
  ret i32 %.175
}